target datalayout = "e-m:e-p270:32:32-p271:32:32-p272:64:64-i64:64-i128:128-f80:128-n8:16:32:64-S128"
target triple = "x86_64-pc-linux-gnu"

%struct.jpeg_decompress_struct = type { ptr, ptr, ptr, ptr, i32, i32, ptr, i32, i32, i32, i32, i32, i32, i32, double, i32, i32, i32, i32, i32, i32, i32, i32, i32, i32, i32, i32, i32, i32, i32, i32, i32, i32, ptr, i32, i32, i32, i32, i32, ptr, [4 x ptr], [4 x ptr], [4 x ptr], i32, ptr, i32, i32, [16 x i8], [16 x i8], [16 x i8], i32, i32, i8, i8, i8, i16, i16, i32, i8, i32, ptr, i32, i32, i32, i32, ptr, i32, [4 x ptr], i32, i32, i32, [10 x i32], i32, i32, i32, i32, i32, ptr, ptr, ptr, ptr, ptr, ptr, ptr, ptr, ptr, ptr, ptr }
%struct.jpeg_component_info = type { i32, i32, i32, i32, i32, i32, i32, i32, i32, i32, i32, i32, i32, i32, i32, i32, i32, i32, i32, ptr, ptr }

; Function Attrs: nounwind uwtable
define internal void @h2v2_fancy_upsample(ptr noundef %0, ptr noundef %1, ptr noundef %2, ptr noundef %3) #0 {
  %5 = alloca ptr, align 8
  %6 = alloca ptr, align 8
  %7 = alloca ptr, align 8
  %8 = alloca ptr, align 8
  %9 = alloca ptr, align 8
  %10 = alloca ptr, align 8
  %11 = alloca ptr, align 8
  %12 = alloca ptr, align 8
  %13 = alloca i32, align 4
  %14 = alloca i32, align 4
  %15 = alloca i32, align 4
  %16 = alloca i32, align 4
  %17 = alloca i32, align 4
  %18 = alloca i32, align 4
  %19 = alloca i32, align 4
  store ptr %0, ptr %5, align 8, !tbaa !3
  store ptr %1, ptr %6, align 8, !tbaa !45
  store ptr %2, ptr %7, align 8, !tbaa !68
  store ptr %3, ptr %8, align 8, !tbaa !74
  call void @llvm.lifetime.start.p0(i64 8, ptr %9) #3
  %20 = load ptr, ptr %8, align 8, !tbaa !74
  %21 = load ptr, ptr %20, align 8, !tbaa !68
  store ptr %21, ptr %9, align 8, !tbaa !68
  call void @llvm.lifetime.start.p0(i64 8, ptr %10) #3
  call void @llvm.lifetime.start.p0(i64 8, ptr %11) #3
  call void @llvm.lifetime.start.p0(i64 8, ptr %12) #3
  call void @llvm.lifetime.start.p0(i64 4, ptr %13) #3
  call void @llvm.lifetime.start.p0(i64 4, ptr %14) #3
  call void @llvm.lifetime.start.p0(i64 4, ptr %15) #3
  call void @llvm.lifetime.start.p0(i64 4, ptr %16) #3
  call void @llvm.lifetime.start.p0(i64 4, ptr %17) #3
  call void @llvm.lifetime.start.p0(i64 4, ptr %18) #3
  call void @llvm.lifetime.start.p0(i64 4, ptr %19) #3
  store i32 0, ptr %18, align 4, !tbaa !55
  store i32 0, ptr %17, align 4, !tbaa !55
  br label %22

22:                                               ; preds = %160, %4
  %23 = load i32, ptr %18, align 4, !tbaa !55
  %24 = load ptr, ptr %5, align 8, !tbaa !3
  %25 = getelementptr inbounds nuw %struct.jpeg_decompress_struct, ptr %24, i32 0, i32 62
  %26 = load i32, ptr %25, align 4, !tbaa !63
  %27 = icmp slt i32 %23, %26
  br i1 %27, label %28, label %163

28:                                               ; preds = %22
  store i32 0, ptr %19, align 4, !tbaa !55
  br label %29

29:                                               ; preds = %157, %28
  %30 = load i32, ptr %19, align 4, !tbaa !55
  %31 = icmp slt i32 %30, 2
  br i1 %31, label %32, label %160

32:                                               ; preds = %29
  %33 = load ptr, ptr %7, align 8, !tbaa !68
  %34 = load i32, ptr %17, align 4, !tbaa !55
  %35 = sext i32 %34 to i64
  %36 = getelementptr inbounds ptr, ptr %33, i64 %35
  %37 = load ptr, ptr %36, align 8, !tbaa !81
  store ptr %37, ptr %10, align 8, !tbaa !81
  %38 = load i32, ptr %19, align 4, !tbaa !55
  %39 = icmp eq i32 %38, 0
  br i1 %39, label %40, label %47

40:                                               ; preds = %32
  %41 = load ptr, ptr %7, align 8, !tbaa !68
  %42 = load i32, ptr %17, align 4, !tbaa !55
  %43 = sub nsw i32 %42, 1
  %44 = sext i32 %43 to i64
  %45 = getelementptr inbounds ptr, ptr %41, i64 %44
  %46 = load ptr, ptr %45, align 8, !tbaa !81
  store ptr %46, ptr %11, align 8, !tbaa !81
  br label %54

47:                                               ; preds = %32
  %48 = load ptr, ptr %7, align 8, !tbaa !68
  %49 = load i32, ptr %17, align 4, !tbaa !55
  %50 = add nsw i32 %49, 1
  %51 = sext i32 %50 to i64
  %52 = getelementptr inbounds ptr, ptr %48, i64 %51
  %53 = load ptr, ptr %52, align 8, !tbaa !81
  store ptr %53, ptr %11, align 8, !tbaa !81
  br label %54

54:                                               ; preds = %47, %40
  %55 = load ptr, ptr %9, align 8, !tbaa !68
  %56 = load i32, ptr %18, align 4, !tbaa !55
  %57 = add nsw i32 %56, 1
  store i32 %57, ptr %18, align 4, !tbaa !55
  %58 = sext i32 %56 to i64
  %59 = getelementptr inbounds ptr, ptr %55, i64 %58
  %60 = load ptr, ptr %59, align 8, !tbaa !81
  store ptr %60, ptr %12, align 8, !tbaa !81
  %61 = load ptr, ptr %10, align 8, !tbaa !81
  %62 = getelementptr inbounds nuw i8, ptr %61, i32 1
  store ptr %62, ptr %10, align 8, !tbaa !81
  %63 = load i8, ptr %61, align 1, !tbaa !39
  %64 = zext i8 %63 to i32
  %65 = mul nsw i32 %64, 3
  %66 = load ptr, ptr %11, align 8, !tbaa !81
  %67 = getelementptr inbounds nuw i8, ptr %66, i32 1
  store ptr %67, ptr %11, align 8, !tbaa !81
  %68 = load i8, ptr %66, align 1, !tbaa !39
  %69 = zext i8 %68 to i32
  %70 = add nsw i32 %65, %69
  store i32 %70, ptr %13, align 4, !tbaa !55
  %71 = load ptr, ptr %10, align 8, !tbaa !81
  %72 = getelementptr inbounds nuw i8, ptr %71, i32 1
  store ptr %72, ptr %10, align 8, !tbaa !81
  %73 = load i8, ptr %71, align 1, !tbaa !39
  %74 = zext i8 %73 to i32
  %75 = mul nsw i32 %74, 3
  %76 = load ptr, ptr %11, align 8, !tbaa !81
  %77 = getelementptr inbounds nuw i8, ptr %76, i32 1
  store ptr %77, ptr %11, align 8, !tbaa !81
  %78 = load i8, ptr %76, align 1, !tbaa !39
  %79 = zext i8 %78 to i32
  %80 = add nsw i32 %75, %79
  store i32 %80, ptr %15, align 4, !tbaa !55
  %81 = load i32, ptr %13, align 4, !tbaa !55
  %82 = mul nsw i32 %81, 4
  %83 = add nsw i32 %82, 8
  %84 = ashr i32 %83, 4
  %85 = trunc i32 %84 to i8
  %86 = load ptr, ptr %12, align 8, !tbaa !81
  %87 = getelementptr inbounds nuw i8, ptr %86, i32 1
  store ptr %87, ptr %12, align 8, !tbaa !81
  store i8 %85, ptr %86, align 1, !tbaa !39
  %88 = load i32, ptr %13, align 4, !tbaa !55
  %89 = mul nsw i32 %88, 3
  %90 = load i32, ptr %15, align 4, !tbaa !55
  %91 = add nsw i32 %89, %90
  %92 = add nsw i32 %91, 7
  %93 = ashr i32 %92, 4
  %94 = trunc i32 %93 to i8
  %95 = load ptr, ptr %12, align 8, !tbaa !81
  %96 = getelementptr inbounds nuw i8, ptr %95, i32 1
  store ptr %96, ptr %12, align 8, !tbaa !81
  store i8 %94, ptr %95, align 1, !tbaa !39
  %97 = load i32, ptr %13, align 4, !tbaa !55
  store i32 %97, ptr %14, align 4, !tbaa !55
  %98 = load i32, ptr %15, align 4, !tbaa !55
  store i32 %98, ptr %13, align 4, !tbaa !55
  %99 = load ptr, ptr %6, align 8, !tbaa !45
  %100 = getelementptr inbounds nuw %struct.jpeg_component_info, ptr %99, i32 0, i32 10
  %101 = load i32, ptr %100, align 8, !tbaa !65
  %102 = sub i32 %101, 2
  store i32 %102, ptr %16, align 4, !tbaa !55
  br label %103

103:                                              ; preds = %137, %54
  %104 = load i32, ptr %16, align 4, !tbaa !55
  %105 = icmp ugt i32 %104, 0
  br i1 %105, label %106, label %140

106:                                              ; preds = %103
  %107 = load ptr, ptr %10, align 8, !tbaa !81
  %108 = getelementptr inbounds nuw i8, ptr %107, i32 1
  store ptr %108, ptr %10, align 8, !tbaa !81
  %109 = load i8, ptr %107, align 1, !tbaa !39
  %110 = zext i8 %109 to i32
  %111 = mul nsw i32 %110, 3
  %112 = load ptr, ptr %11, align 8, !tbaa !81
  %113 = getelementptr inbounds nuw i8, ptr %112, i32 1
  store ptr %113, ptr %11, align 8, !tbaa !81
  %114 = load i8, ptr %112, align 1, !tbaa !39
  %115 = zext i8 %114 to i32
  %116 = add nsw i32 %111, %115
  store i32 %116, ptr %15, align 4, !tbaa !55
  %117 = load i32, ptr %13, align 4, !tbaa !55
  %118 = mul nsw i32 %117, 3
  %119 = load i32, ptr %14, align 4, !tbaa !55
  %120 = add nsw i32 %118, %119
  %121 = add nsw i32 %120, 8
  %122 = ashr i32 %121, 4
  %123 = trunc i32 %122 to i8
  %124 = load ptr, ptr %12, align 8, !tbaa !81
  %125 = getelementptr inbounds nuw i8, ptr %124, i32 1
  store ptr %125, ptr %12, align 8, !tbaa !81
  store i8 %123, ptr %124, align 1, !tbaa !39
  %126 = load i32, ptr %13, align 4, !tbaa !55
  %127 = mul nsw i32 %126, 3
  %128 = load i32, ptr %15, align 4, !tbaa !55
  %129 = add nsw i32 %127, %128
  %130 = add nsw i32 %129, 7
  %131 = ashr i32 %130, 4
  %132 = trunc i32 %131 to i8
  %133 = load ptr, ptr %12, align 8, !tbaa !81
  %134 = getelementptr inbounds nuw i8, ptr %133, i32 1
  store ptr %134, ptr %12, align 8, !tbaa !81
  store i8 %132, ptr %133, align 1, !tbaa !39
  %135 = load i32, ptr %13, align 4, !tbaa !55
  store i32 %135, ptr %14, align 4, !tbaa !55
  %136 = load i32, ptr %15, align 4, !tbaa !55
  store i32 %136, ptr %13, align 4, !tbaa !55
  br label %137

137:                                              ; preds = %106
  %138 = load i32, ptr %16, align 4, !tbaa !55
  %139 = add i32 %138, -1
  store i32 %139, ptr %16, align 4, !tbaa !55
  br label %103, !llvm.loop !89

140:                                              ; preds = %103
  %141 = load i32, ptr %13, align 4, !tbaa !55
  %142 = mul nsw i32 %141, 3
  %143 = load i32, ptr %14, align 4, !tbaa !55
  %144 = add nsw i32 %142, %143
  %145 = add nsw i32 %144, 8
  %146 = ashr i32 %145, 4
  %147 = trunc i32 %146 to i8
  %148 = load ptr, ptr %12, align 8, !tbaa !81
  %149 = getelementptr inbounds nuw i8, ptr %148, i32 1
  store ptr %149, ptr %12, align 8, !tbaa !81
  store i8 %147, ptr %148, align 1, !tbaa !39
  %150 = load i32, ptr %13, align 4, !tbaa !55
  %151 = mul nsw i32 %150, 4
  %152 = add nsw i32 %151, 7
  %153 = ashr i32 %152, 4
  %154 = trunc i32 %153 to i8
  %155 = load ptr, ptr %12, align 8, !tbaa !81
  %156 = getelementptr inbounds nuw i8, ptr %155, i32 1
  store ptr %156, ptr %12, align 8, !tbaa !81
  store i8 %154, ptr %155, align 1, !tbaa !39
  br label %157

157:                                              ; preds = %140
  %158 = load i32, ptr %19, align 4, !tbaa !55
  %159 = add nsw i32 %158, 1
  store i32 %159, ptr %19, align 4, !tbaa !55
  br label %29, !llvm.loop !90

160:                                              ; preds = %29
  %161 = load i32, ptr %17, align 4, !tbaa !55
  %162 = add nsw i32 %161, 1
  store i32 %162, ptr %17, align 4, !tbaa !55
  br label %22, !llvm.loop !91

163:                                              ; preds = %22
  call void @llvm.lifetime.end.p0(i64 4, ptr %19) #3
  call void @llvm.lifetime.end.p0(i64 4, ptr %18) #3
  call void @llvm.lifetime.end.p0(i64 4, ptr %17) #3
  call void @llvm.lifetime.end.p0(i64 4, ptr %16) #3
  call void @llvm.lifetime.end.p0(i64 4, ptr %15) #3
  call void @llvm.lifetime.end.p0(i64 4, ptr %14) #3
  call void @llvm.lifetime.end.p0(i64 4, ptr %13) #3
  call void @llvm.lifetime.end.p0(i64 8, ptr %12) #3
  call void @llvm.lifetime.end.p0(i64 8, ptr %11) #3
  call void @llvm.lifetime.end.p0(i64 8, ptr %10) #3
  call void @llvm.lifetime.end.p0(i64 8, ptr %9) #3
  ret void
}