; Function Attrs: nofree norecurse nosync nounwind memory(readwrite, inaccessiblemem: none) uwtable
define internal void @h2v2_fancy_upsample(ptr noundef readonly captures(none) %0, ptr noundef readonly captures(none) %1, ptr noundef readonly captures(none) %2, ptr noundef readonly captures(none) %3) #4 {
  %5 = load ptr, ptr %3, align 8, !tbaa !71
  %6 = getelementptr inbounds nuw i8, ptr %0, i64 412
  %7 = load i32, ptr %6, align 4, !tbaa !59
  %8 = icmp sgt i32 %7, 0
  br i1 %8, label %.preheader.lr.ph, label %._crit_edge68

.preheader.lr.ph:                                 ; preds = %4
  %9 = getelementptr inbounds nuw i8, ptr %1, i64 40
  br label %.preheader

.preheader:                                       ; preds = %.preheader.lr.ph, %74
  %indvars.iv72 = phi i64 [ 0, %.preheader.lr.ph ], [ %indvars.iv.next73, %74 ]
  %.04367 = phi i64 [ 0, %.preheader.lr.ph ], [ %indvars.iv.next, %74 ]
  %10 = getelementptr inbounds nuw ptr, ptr %2, i64 %indvars.iv72
  %sext = shl i64 %.04367, 32
  %11 = ashr exact i64 %sext, 32
  br label %12

12:                                               ; preds = %.preheader, %._crit_edge
  %indvars.iv = phi i64 [ %11, %.preheader ], [ %indvars.iv.next, %._crit_edge ]
  %13 = phi i1 [ true, %.preheader ], [ false, %._crit_edge ]
  %14 = load ptr, ptr %10, align 8, !tbaa !76
  %.049.in.v = select i1 %13, i64 -8, i64 8
  %.049.in = getelementptr i8, ptr %10, i64 %.049.in.v
  %.049 = load ptr, ptr %.049.in, align 8, !tbaa !76
  %indvars.iv.next = add nsw i64 %indvars.iv, 1
  %15 = getelementptr inbounds ptr, ptr %5, i64 %indvars.iv
  %16 = load ptr, ptr %15, align 8, !tbaa !76
  %17 = getelementptr inbounds nuw i8, ptr %14, i64 1
  %18 = load i8, ptr %14, align 1, !tbaa !37
  %19 = zext i8 %18 to i32
  %20 = mul nuw nsw i32 %19, 3
  %21 = getelementptr inbounds nuw i8, ptr %.049, i64 1
  %22 = load i8, ptr %.049, align 1, !tbaa !37
  %23 = zext i8 %22 to i32
  %24 = add nuw nsw i32 %20, %23
  %25 = load i8, ptr %17, align 1, !tbaa !37
  %26 = zext i8 %25 to i32
  %27 = mul nuw nsw i32 %26, 3
  %28 = load i8, ptr %21, align 1, !tbaa !37
  %29 = zext i8 %28 to i32
  %30 = add nuw nsw i32 %27, %29
  %31 = shl nuw nsw i32 %24, 2
  %32 = add nuw nsw i32 %31, 8
  %33 = lshr i32 %32, 4
  %34 = trunc nuw i32 %33 to i8
  %35 = getelementptr inbounds nuw i8, ptr %16, i64 1
  store i8 %34, ptr %16, align 1, !tbaa !37
  %36 = mul nuw nsw i32 %24, 3
  %37 = add nuw nsw i32 %36, 7
  %38 = add nuw nsw i32 %37, %30
  %39 = lshr i32 %38, 4
  %40 = trunc nuw i32 %39 to i8
  store i8 %40, ptr %35, align 1, !tbaa !37
  %41 = load i32, ptr %9, align 8, !tbaa !62
  %42 = add i32 %41, -2
  %.04852 = getelementptr inbounds nuw i8, ptr %16, i64 2
  %.not53 = icmp eq i32 %42, 0
  br i1 %.not53, label %._crit_edge, label %.lr.ph.preheader

.lr.ph.preheader:                                 ; preds = %12
  %43 = getelementptr inbounds nuw i8, ptr %.049, i64 2
  %44 = getelementptr inbounds nuw i8, ptr %14, i64 2
  br label %.lr.ph

.lr.ph:                                           ; preds = %.lr.ph.preheader, %.lr.ph
  %.04860 = phi ptr [ %.048, %.lr.ph ], [ %.04852, %.lr.ph.preheader ]
  %.04559 = phi i32 [ %63, %.lr.ph ], [ %42, %.lr.ph.preheader ]
  %.04658 = phi i32 [ %.04757, %.lr.ph ], [ %24, %.lr.ph.preheader ]
  %.04757 = phi i32 [ %52, %.lr.ph ], [ %30, %.lr.ph.preheader ]
  %.pn56 = phi ptr [ %.04860, %.lr.ph ], [ %16, %.lr.ph.preheader ]
  %.15055 = phi ptr [ %49, %.lr.ph ], [ %43, %.lr.ph.preheader ]
  %.05154 = phi ptr [ %45, %.lr.ph ], [ %44, %.lr.ph.preheader ]
  %45 = getelementptr inbounds nuw i8, ptr %.05154, i64 1
  %46 = load i8, ptr %.05154, align 1, !tbaa !37
  %47 = zext i8 %46 to i32
  %48 = mul nuw nsw i32 %47, 3
  %49 = getelementptr inbounds nuw i8, ptr %.15055, i64 1
  %50 = load i8, ptr %.15055, align 1, !tbaa !37
  %51 = zext i8 %50 to i32
  %52 = add nuw nsw i32 %48, %51
  %53 = mul nuw nsw i32 %.04757, 3
  %54 = add nuw nsw i32 %.04658, 8
  %55 = add nuw nsw i32 %54, %53
  %56 = lshr i32 %55, 4
  %57 = trunc nuw i32 %56 to i8
  %58 = getelementptr inbounds nuw i8, ptr %.pn56, i64 3
  store i8 %57, ptr %.04860, align 1, !tbaa !37
  %59 = add nuw nsw i32 %53, 7
  %60 = add nuw nsw i32 %59, %52
  %61 = lshr i32 %60, 4
  %62 = trunc nuw i32 %61 to i8
  store i8 %62, ptr %58, align 1, !tbaa !37
  %63 = add i32 %.04559, -1
  %.048 = getelementptr inbounds nuw i8, ptr %.04860, i64 2
  %.not = icmp eq i32 %63, 0
  br i1 %.not, label %._crit_edge, label %.lr.ph, !llvm.loop !85

._crit_edge:                                      ; preds = %.lr.ph, %12
  %.pn.lcssa = phi ptr [ %16, %12 ], [ %.04860, %.lr.ph ]
  %.047.lcssa = phi i32 [ %30, %12 ], [ %52, %.lr.ph ]
  %.046.lcssa = phi i32 [ %24, %12 ], [ %.04757, %.lr.ph ]
  %.048.lcssa = phi ptr [ %.04852, %12 ], [ %.048, %.lr.ph ]
  %64 = mul nuw nsw i32 %.047.lcssa, 3
  %65 = add nuw nsw i32 %.046.lcssa, 8
  %66 = add nuw nsw i32 %65, %64
  %67 = lshr i32 %66, 4
  %68 = trunc nuw i32 %67 to i8
  %69 = getelementptr inbounds nuw i8, ptr %.pn.lcssa, i64 3
  store i8 %68, ptr %.048.lcssa, align 1, !tbaa !37
  %70 = shl nuw nsw i32 %.047.lcssa, 2
  %71 = add nuw nsw i32 %70, 7
  %72 = lshr i32 %71, 4
  %73 = trunc nuw i32 %72 to i8
  store i8 %73, ptr %69, align 1, !tbaa !37
  br i1 %13, label %12, label %74, !llvm.loop !86

74:                                               ; preds = %._crit_edge
  %75 = trunc nsw i64 %indvars.iv.next to i32
  %indvars.iv.next73 = add nuw nsw i64 %indvars.iv72, 1
  %76 = load i32, ptr %6, align 4, !tbaa !59
  %77 = icmp sgt i32 %76, %75
  br i1 %77, label %.preheader, label %._crit_edge68, !llvm.loop !87

._crit_edge68:                                    ; preds = %74, %4
  ret void
}